; Function Attrs: mustprogress uwtable
define noundef zeroext i1 @_ZN6google8protobuf11MessageLite23ParseFromZeroCopyStreamEPNS0_2io19ZeroCopyInputStreamE(ptr noundef nonnull align 8 dereferenceable(16) %this, ptr noundef %input) local_unnamed_addr #3 align 2 {
entry:
  %ctx.i.i = alloca %"class.google::protobuf::internal::ParseContext", align 8
  %vtable.i = load ptr, ptr %this, align 8
  %vfn.i = getelementptr inbounds i8, ptr %vtable.i, i64 24
  %0 = load ptr, ptr %vfn.i, align 8
  tail call void %0(ptr noundef nonnull align 8 dereferenceable(16) %this)
  call void @llvm.lifetime.start.p0(i64 112, ptr nonnull %ctx.i.i)
  %1 = load i32, ptr @_ZN6google8protobuf2io16CodedInputStream24default_recursion_limit_E, align 4
  %zcis_.i.i.i.i = getelementptr inbounds i8, ptr %ctx.i.i, i64 32
  %last_tag_minus_1_.i.i.i.i = getelementptr inbounds i8, ptr %ctx.i.i, i64 80
  %overall_limit_.i.i.i.i = getelementptr inbounds i8, ptr %ctx.i.i, i64 84
  call void @llvm.memset.p0.i64(ptr noundef nonnull align 8 dereferenceable(52) %zcis_.i.i.i.i, i8 0, i64 52, i1 false)
  store i32 2147483647, ptr %overall_limit_.i.i.i.i, align 4
  %depth_.i.i.i = getelementptr inbounds i8, ptr %ctx.i.i, i64 88
  store i32 %1, ptr %depth_.i.i.i, align 8
  %group_depth_.i.i.i = getelementptr inbounds i8, ptr %ctx.i.i, i64 92
  store i32 -2147483648, ptr %group_depth_.i.i.i, align 4
  %data_.i.i.i = getelementptr inbounds i8, ptr %ctx.i.i, i64 96
  call void @llvm.memset.p0.i64(ptr noundef nonnull align 8 dereferenceable(16) %data_.i.i.i, i8 0, i64 16, i1 false)
  %call.i.i.i = call noundef ptr @_ZN6google8protobuf8internal18EpsCopyInputStream8InitFromEPNS0_2io19ZeroCopyInputStreamE(ptr noundef nonnull align 8 dereferenceable(88) %ctx.i.i, ptr noundef %input)
  %vtable.i.i = load ptr, ptr %this, align 8
  %vfn.i.i = getelementptr inbounds i8, ptr %vtable.i.i, i64 56
  %2 = load ptr, ptr %vfn.i.i, align 8
  %call1.i.i = call noundef ptr %2(ptr noundef nonnull align 8 dereferenceable(16) %this, ptr noundef %call.i.i.i, ptr noundef nonnull %ctx.i.i)
  %tobool.not.i.i = icmp ne ptr %call1.i.i, null
  %3 = load i32, ptr %last_tag_minus_1_.i.i.i.i, align 8
  %cmp.i.i.i = icmp eq i32 %3, 1
  %or.cond.i.i = select i1 %tobool.not.i.i, i1 %cmp.i.i.i, i1 false
  br i1 %or.cond.i.i, label %if.then.i.i, label %_ZN6google8protobuf11MessageLite9ParseFromILNS1_10ParseFlagsE1EPNS0_2io19ZeroCopyInputStreamEEEbRKT0_.exit

if.then.i.i:                                      ; preds = %entry
  %vtable.i.i.i.i = load ptr, ptr %this, align 8
  %vfn.i.i.i.i = getelementptr inbounds i8, ptr %vtable.i.i.i.i, i64 32
  %4 = load ptr, ptr %vfn.i.i.i.i, align 8
  %call.i.i.i.i = call noundef zeroext i1 %4(ptr noundef nonnull align 8 dereferenceable(16) %this)
  br i1 %call.i.i.i.i, label %_ZN6google8protobuf11MessageLite9ParseFromILNS1_10ParseFlagsE1EPNS0_2io19ZeroCopyInputStreamEEEbRKT0_.exit, label %if.end.i.i.i.i

if.end.i.i.i.i:                                   ; preds = %if.then.i.i
  call void @_ZNK6google8protobuf11MessageLite29LogInitializationErrorMessageEv(ptr noundef nonnull align 8 dereferenceable(16) %this)
  br label %_ZN6google8protobuf11MessageLite9ParseFromILNS1_10ParseFlagsE1EPNS0_2io19ZeroCopyInputStreamEEEbRKT0_.exit

_ZN6google8protobuf11MessageLite9ParseFromILNS1_10ParseFlagsE1EPNS0_2io19ZeroCopyInputStreamEEEbRKT0_.exit: ; preds = %entry, %if.then.i.i, %if.end.i.i.i.i
  %retval.0.i.i = phi i1 [ false, %entry ], [ true, %if.then.i.i ], [ false, %if.end.i.i.i.i ]
  call void @llvm.lifetime.end.p0(i64 112, ptr nonnull %ctx.i.i)
  ret i1 %retval.0.i.i
}